target datalayout = "e-m:e-p270:32:32-p271:32:32-p272:64:64-i64:64-i128:128-f80:128-n8:16:32:64-S128"
target triple = "x86_64-pc-linux-gnu"

; Function Attrs: mustprogress nounwind uwtable
define hidden noundef zeroext i1 @_Z26is_smt2_simple_symbol_charc(i8 noundef signext %0) #4 {
  %2 = alloca i8, align 1
  store i8 %0, ptr %2, align 1, !tbaa !3
  %3 = load i8, ptr %2, align 1, !tbaa !3
  %4 = sext i8 %3 to i32
  %5 = icmp sle i32 48, %4
  br i1 %5, label %6, label %10

6:                                                ; preds = %1
  %7 = load i8, ptr %2, align 1, !tbaa !3
  %8 = sext i8 %7 to i32
  %9 = icmp sle i32 %8, 57
  br i1 %9, label %94, label %10

10:                                               ; preds = %6, %1
  %11 = load i8, ptr %2, align 1, !tbaa !3
  %12 = sext i8 %11 to i32
  %13 = icmp sle i32 97, %12
  br i1 %13, label %14, label %18

14:                                               ; preds = %10
  %15 = load i8, ptr %2, align 1, !tbaa !3
  %16 = sext i8 %15 to i32
  %17 = icmp sle i32 %16, 122
  br i1 %17, label %94, label %18

18:                                               ; preds = %14, %10
  %19 = load i8, ptr %2, align 1, !tbaa !3
  %20 = sext i8 %19 to i32
  %21 = icmp sle i32 65, %20
  br i1 %21, label %22, label %26

22:                                               ; preds = %18
  %23 = load i8, ptr %2, align 1, !tbaa !3
  %24 = sext i8 %23 to i32
  %25 = icmp sle i32 %24, 90
  br i1 %25, label %94, label %26

26:                                               ; preds = %22, %18
  %27 = load i8, ptr %2, align 1, !tbaa !3
  %28 = sext i8 %27 to i32
  %29 = icmp eq i32 %28, 126
  br i1 %29, label %94, label %30

30:                                               ; preds = %26
  %31 = load i8, ptr %2, align 1, !tbaa !3
  %32 = sext i8 %31 to i32
  %33 = icmp eq i32 %32, 33
  br i1 %33, label %94, label %34

34:                                               ; preds = %30
  %35 = load i8, ptr %2, align 1, !tbaa !3
  %36 = sext i8 %35 to i32
  %37 = icmp eq i32 %36, 64
  br i1 %37, label %94, label %38

38:                                               ; preds = %34
  %39 = load i8, ptr %2, align 1, !tbaa !3
  %40 = sext i8 %39 to i32
  %41 = icmp eq i32 %40, 36
  br i1 %41, label %94, label %42

42:                                               ; preds = %38
  %43 = load i8, ptr %2, align 1, !tbaa !3
  %44 = sext i8 %43 to i32
  %45 = icmp eq i32 %44, 37
  br i1 %45, label %94, label %46

46:                                               ; preds = %42
  %47 = load i8, ptr %2, align 1, !tbaa !3
  %48 = sext i8 %47 to i32
  %49 = icmp eq i32 %48, 94
  br i1 %49, label %94, label %50

50:                                               ; preds = %46
  %51 = load i8, ptr %2, align 1, !tbaa !3
  %52 = sext i8 %51 to i32
  %53 = icmp eq i32 %52, 38
  br i1 %53, label %94, label %54

54:                                               ; preds = %50
  %55 = load i8, ptr %2, align 1, !tbaa !3
  %56 = sext i8 %55 to i32
  %57 = icmp eq i32 %56, 42
  br i1 %57, label %94, label %58

58:                                               ; preds = %54
  %59 = load i8, ptr %2, align 1, !tbaa !3
  %60 = sext i8 %59 to i32
  %61 = icmp eq i32 %60, 95
  br i1 %61, label %94, label %62

62:                                               ; preds = %58
  %63 = load i8, ptr %2, align 1, !tbaa !3
  %64 = sext i8 %63 to i32
  %65 = icmp eq i32 %64, 45
  br i1 %65, label %94, label %66

66:                                               ; preds = %62
  %67 = load i8, ptr %2, align 1, !tbaa !3
  %68 = sext i8 %67 to i32
  %69 = icmp eq i32 %68, 43
  br i1 %69, label %94, label %70

70:                                               ; preds = %66
  %71 = load i8, ptr %2, align 1, !tbaa !3
  %72 = sext i8 %71 to i32
  %73 = icmp eq i32 %72, 61
  br i1 %73, label %94, label %74

74:                                               ; preds = %70
  %75 = load i8, ptr %2, align 1, !tbaa !3
  %76 = sext i8 %75 to i32
  %77 = icmp eq i32 %76, 60
  br i1 %77, label %94, label %78

78:                                               ; preds = %74
  %79 = load i8, ptr %2, align 1, !tbaa !3
  %80 = sext i8 %79 to i32
  %81 = icmp eq i32 %80, 62
  br i1 %81, label %94, label %82

82:                                               ; preds = %78
  %83 = load i8, ptr %2, align 1, !tbaa !3
  %84 = sext i8 %83 to i32
  %85 = icmp eq i32 %84, 46
  br i1 %85, label %94, label %86

86:                                               ; preds = %82
  %87 = load i8, ptr %2, align 1, !tbaa !3
  %88 = sext i8 %87 to i32
  %89 = icmp eq i32 %88, 63
  br i1 %89, label %94, label %90

90:                                               ; preds = %86
  %91 = load i8, ptr %2, align 1, !tbaa !3
  %92 = sext i8 %91 to i32
  %93 = icmp eq i32 %92, 47
  br label %94

94:                                               ; preds = %90, %86, %82, %78, %74, %70, %66, %62, %58, %54, %50, %46, %42, %38, %34, %30, %26, %22, %14, %6
  %95 = phi i1 [ true, %86 ], [ true, %82 ], [ true, %78 ], [ true, %74 ], [ true, %70 ], [ true, %66 ], [ true, %62 ], [ true, %58 ], [ true, %54 ], [ true, %50 ], [ true, %46 ], [ true, %42 ], [ true, %38 ], [ true, %34 ], [ true, %30 ], [ true, %26 ], [ true, %22 ], [ true, %14 ], [ true, %6 ], [ %93, %90 ]
  ret i1 %95
}