; Function Attrs: mustprogress nofree norecurse nosync nounwind willreturn memory(none) uwtable
define hidden noundef zeroext i1 @_Z26is_smt2_simple_symbol_charc(i8 noundef signext %0) local_unnamed_addr #3 {
  %2 = add i8 %0, -48
  %or.cond = icmp ult i8 %2, 10
  %3 = and i8 %0, -33
  %4 = add i8 %3, -65
  %5 = icmp ult i8 %4, 26
  %or.cond80 = or i1 %or.cond, %5
  br i1 %or.cond80, label %switch.edge, label %switch.early.test

switch.early.test:                                ; preds = %1
  switch i8 %0, label %6 [
    i8 126, label %switch.edge
    i8 95, label %switch.edge
    i8 94, label %switch.edge
    i8 64, label %switch.edge
    i8 63, label %switch.edge
    i8 62, label %switch.edge
    i8 61, label %switch.edge
    i8 60, label %switch.edge
    i8 46, label %switch.edge
    i8 45, label %switch.edge
    i8 43, label %switch.edge
    i8 42, label %switch.edge
    i8 38, label %switch.edge
    i8 37, label %switch.edge
    i8 36, label %switch.edge
    i8 33, label %switch.edge
    i8 47, label %switch.edge
  ]

6:                                                ; preds = %switch.early.test
  br label %switch.edge

switch.edge:                                      ; preds = %switch.early.test, %switch.early.test, %switch.early.test, %switch.early.test, %switch.early.test, %switch.early.test, %switch.early.test, %switch.early.test, %switch.early.test, %switch.early.test, %switch.early.test, %switch.early.test, %switch.early.test, %switch.early.test, %switch.early.test, %switch.early.test, %switch.early.test, %1, %6
  %7 = phi i1 [ false, %6 ], [ true, %1 ], [ true, %switch.early.test ], [ true, %switch.early.test ], [ true, %switch.early.test ], [ true, %switch.early.test ], [ true, %switch.early.test ], [ true, %switch.early.test ], [ true, %switch.early.test ], [ true, %switch.early.test ], [ true, %switch.early.test ], [ true, %switch.early.test ], [ true, %switch.early.test ], [ true, %switch.early.test ], [ true, %switch.early.test ], [ true, %switch.early.test ], [ true, %switch.early.test ], [ true, %switch.early.test ], [ true, %switch.early.test ]
  ret i1 %7
}